target datalayout = "e-m:e-p270:32:32-p271:32:32-p272:64:64-i64:64-i128:128-f80:128-n8:16:32:64-S128"
target triple = "x86_64-pc-linux-gnu"

%struct.SDL_WaylandSeat = type { ptr, ptr, ptr, ptr, ptr, %struct.wl_list, i32, i32, %struct.anon.1, %struct.anon.3, %struct.anon.6, %struct.anon.7, %struct.anon.8 }
%struct.wl_list = type { ptr, ptr }
%struct.anon.1 = type { ptr, ptr, ptr, ptr, ptr, %struct.SDL_WaylandKeyboardRepeat, i64, i16, i16, i32, i8, %struct.anon.2 }
%struct.SDL_WaylandKeyboardRepeat = type { i32, i32, i32, i8, i8, i32, i64, i64, i64, i32, [8 x i8] }
%struct.anon.2 = type { ptr, ptr, ptr, ptr, i32, i32, i32, i32, i32, i32, i32, i32, i32, i32, i32 }
%struct.anon.3 = type { ptr, ptr, ptr, ptr, ptr, ptr, ptr, ptr, i64, i32, i32, %struct.SDL_Point, i32, %struct.anon.4, %struct.anon.5 }
%struct.SDL_Point = type { i32, i32 }
%struct.anon.4 = type { i32, float, i32, float, i64, i32 }
%struct.anon.5 = type { ptr, ptr, ptr, i64, i64, i32 }
%struct.anon.6 = type { ptr, ptr, i64, %struct.wl_list }
%struct.anon.7 = type { ptr, %struct.SDL_Rect, i8, i8 }
%struct.SDL_Rect = type { i32, i32, i32, i32 }
%struct.anon.8 = type { ptr, %struct.wl_list }
%struct.SDL_VideoDevice = type { ptr, ptr, ptr, ptr, ptr, ptr, ptr, ptr, ptr, ptr, ptr, ptr, ptr, ptr, ptr, ptr, ptr, ptr, ptr, ptr, ptr, ptr, ptr, ptr, ptr, ptr, ptr, ptr, ptr, ptr, ptr, ptr, ptr, ptr, ptr, ptr, ptr, ptr, ptr, ptr, ptr, ptr, ptr, ptr, ptr, ptr, ptr, ptr, ptr, ptr, ptr, ptr, ptr, ptr, ptr, ptr, ptr, ptr, ptr, ptr, ptr, ptr, ptr, ptr, ptr, ptr, ptr, ptr, ptr, ptr, ptr, ptr, ptr, ptr, ptr, ptr, ptr, ptr, ptr, ptr, ptr, ptr, ptr, ptr, ptr, ptr, ptr, ptr, ptr, ptr, ptr, ptr, ptr, ptr, ptr, ptr, ptr, i64, i8, i8, i8, ptr, i32, ptr, %struct.SDL_Rect, ptr, ptr, i32, ptr, ptr, ptr, ptr, i64, ptr, i8, i32, i32, %struct.anon, ptr, ptr, ptr, ptr, ptr, ptr, %struct.SDL_AtomicInt, %struct.SDL_AtomicInt, i8, %struct.anon.0, ptr, ptr, ptr, ptr, ptr }
%struct.anon = type { i32, i32, i32, i32, i32, i32, i32, i32, i32, i32, i32, i32, i32, i32, i32, i32, i32, i32, i32, i32, i32, i32, i32, i32, i32, i32, i32, i32, i32, [256 x i8], ptr }
%struct.SDL_AtomicInt = type { i32 }
%struct.anon.0 = type { ptr, ptr, i32, [256 x i8], ptr }
%struct.SDL_VideoData = type { i8, ptr, i32, ptr, ptr, ptr, ptr, i32, %struct.anon.9, ptr, ptr, ptr, ptr, ptr, ptr, ptr, ptr, ptr, ptr, ptr, ptr, ptr, ptr, ptr, ptr, ptr, ptr, ptr, ptr, ptr, ptr, %struct.wl_list, ptr, ptr, ptr, ptr, i32, i32, i8, i8 }
%struct.anon.9 = type { ptr }
%struct.SDL_WindowData = type { ptr, ptr, ptr, ptr, ptr, ptr, ptr, %union.anon, i32, i32, i32, i32, ptr, ptr, ptr, ptr, ptr, ptr, ptr, ptr, ptr, ptr, ptr, ptr, ptr, ptr, %struct.SDL_AtomicInt, ptr, i32, ptr, double, ptr, i32, i32, i32, i32, %struct.anon.14, %struct.anon.15, %struct.anon.16, %struct.anon.17, %struct.anon.18, %struct.anon.19, %struct.anon.20, i32, i32, i32, i64, i32, i32, i8, i8, i8, i8, i8, i8, i8, i8, i8, i8, i8, i8, i8, i8, i32, %struct.wl_list }
%union.anon = type { %struct.anon.10 }
%struct.anon.10 = type { ptr, %union.anon.11, i8 }
%union.anon.11 = type { %struct.anon.13 }
%struct.anon.13 = type { ptr, ptr }
%struct.anon.14 = type { double, double }
%struct.anon.15 = type { i32, i32, i32, i32 }
%struct.anon.16 = type { i32, i32, i32, i32 }
%struct.anon.17 = type { i32, i32 }
%struct.anon.18 = type { i32, i32 }
%struct.anon.19 = type { i32, i32 }
%struct.anon.20 = type { i32, i32, i8 }
%struct.SDL_Window = type { i32, ptr, ptr, i32, i32, i32, i32, i32, i32, i32, i32, float, float, i32, i32, i64, i64, float, i8, i8, i32, i32, %struct.SDL_Rect, %struct.SDL_Rect, %struct.SDL_Rect, i8, i8, i8, %struct.SDL_DisplayMode, %struct.SDL_DisplayMode, %struct.SDL_HDROutputProperties, float, ptr, i8, i8, i8, i8, i8, i8, i8, i8, i8, i32, i32, i32, i32, %struct.SDL_Rect, i32, i8, %struct.SDL_Rect, i32, %struct.SDL_Rect, ptr, ptr, i32, float, i32, i32, ptr, ptr, ptr, ptr, ptr, ptr, ptr, ptr, ptr }
%struct.SDL_DisplayMode = type { i32, i32, i32, i32, float, float, i32, i32, ptr }
%struct.SDL_HDROutputProperties = type { float, float }
%struct.SDL_FPoint = type { float, float }
%struct.SDL_FRect = type { float, float, float, float }

@.str = private unnamed_addr constant [106 x i8] c"wayland: mouse warp failed; compositor lacks support for the required zwp_pointer_confinement_v1 protocol\00", align 1

; Function Attrs: alwaysinline nounwind uwtable
define internal zeroext i1 @SDL_PointInRectFloat(ptr noundef %0, ptr noundef %1) #5 {
  %3 = alloca ptr, align 8
  %4 = alloca ptr, align 8
  store ptr %0, ptr %3, align 8
  store ptr %1, ptr %4, align 8
  %5 = load ptr, ptr %3, align 8
  %6 = icmp ne ptr %5, null
  br i1 %6, label %7, label %50

7:                                                ; preds = %2
  %8 = load ptr, ptr %4, align 8
  %9 = icmp ne ptr %8, null
  br i1 %9, label %10, label %50

10:                                               ; preds = %7
  %11 = load ptr, ptr %3, align 8
  %12 = getelementptr inbounds nuw %struct.SDL_FPoint, ptr %11, i32 0, i32 0
  %13 = load float, ptr %12, align 4
  %14 = load ptr, ptr %4, align 8
  %15 = getelementptr inbounds nuw %struct.SDL_FRect, ptr %14, i32 0, i32 0
  %16 = load float, ptr %15, align 4
  %17 = fcmp oge float %13, %16
  br i1 %17, label %18, label %50

18:                                               ; preds = %10
  %19 = load ptr, ptr %3, align 8
  %20 = getelementptr inbounds nuw %struct.SDL_FPoint, ptr %19, i32 0, i32 0
  %21 = load float, ptr %20, align 4
  %22 = load ptr, ptr %4, align 8
  %23 = getelementptr inbounds nuw %struct.SDL_FRect, ptr %22, i32 0, i32 0
  %24 = load float, ptr %23, align 4
  %25 = load ptr, ptr %4, align 8
  %26 = getelementptr inbounds nuw %struct.SDL_FRect, ptr %25, i32 0, i32 2
  %27 = load float, ptr %26, align 4
  %28 = fadd float %24, %27
  %29 = fcmp ole float %21, %28
  br i1 %29, label %30, label %50

30:                                               ; preds = %18
  %31 = load ptr, ptr %3, align 8
  %32 = getelementptr inbounds nuw %struct.SDL_FPoint, ptr %31, i32 0, i32 1
  %33 = load float, ptr %32, align 4
  %34 = load ptr, ptr %4, align 8
  %35 = getelementptr inbounds nuw %struct.SDL_FRect, ptr %34, i32 0, i32 1
  %36 = load float, ptr %35, align 4
  %37 = fcmp oge float %33, %36
  br i1 %37, label %38, label %50

38:                                               ; preds = %30
  %39 = load ptr, ptr %3, align 8
  %40 = getelementptr inbounds nuw %struct.SDL_FPoint, ptr %39, i32 0, i32 1
  %41 = load float, ptr %40, align 4
  %42 = load ptr, ptr %4, align 8
  %43 = getelementptr inbounds nuw %struct.SDL_FRect, ptr %42, i32 0, i32 1
  %44 = load float, ptr %43, align 4
  %45 = load ptr, ptr %4, align 8
  %46 = getelementptr inbounds nuw %struct.SDL_FRect, ptr %45, i32 0, i32 3
  %47 = load float, ptr %46, align 4
  %48 = fadd float %44, %47
  %49 = fcmp ole float %41, %48
  br label %50

50:                                               ; preds = %38, %30, %18, %10, %7, %2
  %51 = phi i1 [ false, %30 ], [ false, %18 ], [ false, %10 ], [ false, %7 ], [ false, %2 ], [ %49, %38 ]
  %52 = select i1 %51, i32 1, i32 0
  %53 = icmp ne i32 %52, 0
  ret i1 %53
}

; Function Attrs: nounwind uwtable
define internal zeroext i1 @Wayland_WarpMouseGlobal(float noundef %0, float noundef %1) #0 {
  %3 = alloca i1, align 1
  %4 = alloca float, align 4
  %5 = alloca float, align 4
  %6 = alloca ptr, align 8
  %7 = alloca ptr, align 8
  %8 = alloca ptr, align 8
  %9 = alloca ptr, align 8
  %10 = alloca ptr, align 8
  %11 = alloca i32, align 4
  %12 = alloca i32, align 4
  %13 = alloca %struct.SDL_FPoint, align 4
  %14 = alloca %struct.SDL_FRect, align 4
  %15 = alloca i32, align 4
  store float %0, ptr %4, align 4
  store float %1, ptr %5, align 4
  call void @llvm.lifetime.start.p0(i64 8, ptr %6) #7
  %16 = call ptr @SDL_GetVideoDevice()
  store ptr %16, ptr %6, align 8
  call void @llvm.lifetime.start.p0(i64 8, ptr %7) #7
  %17 = load ptr, ptr %6, align 8
  %18 = getelementptr inbounds nuw %struct.SDL_VideoDevice, ptr %17, i32 0, i32 128
  %19 = load ptr, ptr %18, align 8
  store ptr %19, ptr %7, align 8
  call void @llvm.lifetime.start.p0(i64 8, ptr %8) #7
  %20 = load ptr, ptr %7, align 8
  %21 = getelementptr inbounds nuw %struct.SDL_VideoData, ptr %20, i32 0, i32 10
  %22 = load ptr, ptr %21, align 8
  %23 = icmp ne ptr %22, null
  br i1 %23, label %24, label %110

24:                                               ; preds = %2
  %25 = load ptr, ptr %7, align 8
  %26 = getelementptr inbounds nuw %struct.SDL_VideoData, ptr %25, i32 0, i32 31
  %27 = getelementptr inbounds nuw %struct.wl_list, ptr %26, i32 0, i32 1
  %28 = load ptr, ptr %27, align 8
  %29 = getelementptr inbounds i8, ptr %28, i64 -40
  store ptr %29, ptr %8, align 8
  br label %30

30:                                               ; preds = %103, %24
  %31 = load ptr, ptr %8, align 8
  %32 = getelementptr inbounds nuw %struct.SDL_WaylandSeat, ptr %31, i32 0, i32 5
  %33 = load ptr, ptr %7, align 8
  %34 = getelementptr inbounds nuw %struct.SDL_VideoData, ptr %33, i32 0, i32 31
  %35 = icmp ne ptr %32, %34
  br i1 %35, label %36, label %109

36:                                               ; preds = %30
  call void @llvm.lifetime.start.p0(i64 8, ptr %9) #7
  %37 = load ptr, ptr %8, align 8
  %38 = getelementptr inbounds nuw %struct.SDL_WaylandSeat, ptr %37, i32 0, i32 9
  %39 = getelementptr inbounds nuw %struct.anon.3, ptr %38, i32 0, i32 6
  %40 = load ptr, ptr %39, align 8
  %41 = icmp ne ptr %40, null
  br i1 %41, label %42, label %47

42:                                               ; preds = %36
  %43 = load ptr, ptr %8, align 8
  %44 = getelementptr inbounds nuw %struct.SDL_WaylandSeat, ptr %43, i32 0, i32 9
  %45 = getelementptr inbounds nuw %struct.anon.3, ptr %44, i32 0, i32 6
  %46 = load ptr, ptr %45, align 8
  br label %52

47:                                               ; preds = %36
  %48 = load ptr, ptr %8, align 8
  %49 = getelementptr inbounds nuw %struct.SDL_WaylandSeat, ptr %48, i32 0, i32 8
  %50 = getelementptr inbounds nuw %struct.anon.1, ptr %49, i32 0, i32 3
  %51 = load ptr, ptr %50, align 8
  br label %52

52:                                               ; preds = %47, %42
  %53 = phi ptr [ %46, %42 ], [ %51, %47 ]
  store ptr %53, ptr %9, align 8
  %54 = load ptr, ptr %9, align 8
  %55 = icmp ne ptr %54, null
  br i1 %55, label %56, label %102

56:                                               ; preds = %52
  call void @llvm.lifetime.start.p0(i64 8, ptr %10) #7
  %57 = load ptr, ptr %9, align 8
  %58 = getelementptr inbounds nuw %struct.SDL_WindowData, ptr %57, i32 0, i32 0
  %59 = load ptr, ptr %58, align 8
  store ptr %59, ptr %10, align 8
  call void @llvm.lifetime.start.p0(i64 4, ptr %11) #7
  call void @llvm.lifetime.start.p0(i64 4, ptr %12) #7
  %60 = load ptr, ptr %10, align 8
  %61 = load ptr, ptr %10, align 8
  %62 = getelementptr inbounds nuw %struct.SDL_Window, ptr %61, i32 0, i32 3
  %63 = load i32, ptr %62, align 8
  %64 = load ptr, ptr %10, align 8
  %65 = getelementptr inbounds nuw %struct.SDL_Window, ptr %64, i32 0, i32 4
  %66 = load i32, ptr %65, align 4
  call void @SDL_RelativeToGlobalForWindow(ptr noundef %60, i32 noundef %63, i32 noundef %66, ptr noundef %11, ptr noundef %12)
  call void @llvm.lifetime.start.p0(i64 8, ptr %13) #7
  %67 = getelementptr inbounds nuw %struct.SDL_FPoint, ptr %13, i32 0, i32 0
  %68 = load float, ptr %4, align 4
  store float %68, ptr %67, align 4
  %69 = getelementptr inbounds nuw %struct.SDL_FPoint, ptr %13, i32 0, i32 1
  %70 = load float, ptr %5, align 4
  store float %70, ptr %69, align 4
  call void @llvm.lifetime.start.p0(i64 16, ptr %14) #7
  %71 = getelementptr inbounds nuw %struct.SDL_FRect, ptr %14, i32 0, i32 0
  %72 = load i32, ptr %11, align 4
  %73 = sitofp i32 %72 to float
  store float %73, ptr %71, align 4
  %74 = getelementptr inbounds nuw %struct.SDL_FRect, ptr %14, i32 0, i32 1
  %75 = load i32, ptr %12, align 4
  %76 = sitofp i32 %75 to float
  store float %76, ptr %74, align 4
  %77 = getelementptr inbounds nuw %struct.SDL_FRect, ptr %14, i32 0, i32 2
  %78 = load ptr, ptr %10, align 8
  %79 = getelementptr inbounds nuw %struct.SDL_Window, ptr %78, i32 0, i32 5
  %80 = load i32, ptr %79, align 8
  %81 = sitofp i32 %80 to float
  store float %81, ptr %77, align 4
  %82 = getelementptr inbounds nuw %struct.SDL_FRect, ptr %14, i32 0, i32 3
  %83 = load ptr, ptr %10, align 8
  %84 = getelementptr inbounds nuw %struct.SDL_Window, ptr %83, i32 0, i32 6
  %85 = load i32, ptr %84, align 4
  %86 = sitofp i32 %85 to float
  store float %86, ptr %82, align 4
  %87 = call zeroext i1 @SDL_PointInRectFloat(ptr noundef %13, ptr noundef %14)
  br i1 %87, label %88, label %101

88:                                               ; preds = %56
  %89 = load ptr, ptr %8, align 8
  %90 = load ptr, ptr %9, align 8
  %91 = getelementptr inbounds nuw %struct.SDL_FPoint, ptr %13, i32 0, i32 0
  %92 = load float, ptr %91, align 4
  %93 = load i32, ptr %11, align 4
  %94 = sitofp i32 %93 to float
  %95 = fsub float %92, %94
  %96 = getelementptr inbounds nuw %struct.SDL_FPoint, ptr %13, i32 0, i32 1
  %97 = load float, ptr %96, align 4
  %98 = load i32, ptr %12, align 4
  %99 = sitofp i32 %98 to float
  %100 = fsub float %97, %99
  call void @Wayland_SeatWarpMouse(ptr noundef %89, ptr noundef %90, float noundef %95, float noundef %100)
  br label %101

101:                                              ; preds = %88, %56
  call void @llvm.lifetime.end.p0(i64 16, ptr %14) #7
  call void @llvm.lifetime.end.p0(i64 8, ptr %13) #7
  call void @llvm.lifetime.end.p0(i64 4, ptr %12) #7
  call void @llvm.lifetime.end.p0(i64 4, ptr %11) #7
  call void @llvm.lifetime.end.p0(i64 8, ptr %10) #7
  br label %102

102:                                              ; preds = %101, %52
  call void @llvm.lifetime.end.p0(i64 8, ptr %9) #7
  br label %103

103:                                              ; preds = %102
  %104 = load ptr, ptr %8, align 8
  %105 = getelementptr inbounds nuw %struct.SDL_WaylandSeat, ptr %104, i32 0, i32 5
  %106 = getelementptr inbounds nuw %struct.wl_list, ptr %105, i32 0, i32 1
  %107 = load ptr, ptr %106, align 8
  %108 = getelementptr inbounds i8, ptr %107, i64 -40
  store ptr %108, ptr %8, align 8
  br label %30, !llvm.loop !10

109:                                              ; preds = %30
  br label %112

110:                                              ; preds = %2
  %111 = call zeroext i1 (ptr, ...) @SDL_SetError_REAL(ptr noundef @.str)
  store i1 %111, ptr %3, align 1
  store i32 1, ptr %15, align 4
  br label %113

112:                                              ; preds = %109
  store i1 true, ptr %3, align 1
  store i32 1, ptr %15, align 4
  br label %113

113:                                              ; preds = %112, %110
  call void @llvm.lifetime.end.p0(i64 8, ptr %8) #7
  call void @llvm.lifetime.end.p0(i64 8, ptr %7) #7
  call void @llvm.lifetime.end.p0(i64 8, ptr %6) #7
  %114 = load i1, ptr %3, align 1
  ret i1 %114
}