; Function Attrs: nounwind uwtable
define internal zeroext i1 @Wayland_WarpMouseGlobal(float noundef %0, float noundef %1) #0 {
  %3 = alloca i32, align 4
  %4 = alloca i32, align 4
  %5 = tail call ptr @SDL_GetVideoDevice() #6
  %6 = getelementptr inbounds nuw i8, ptr %5, i64 1656
  %7 = load ptr, ptr %6, align 8
  %8 = getelementptr inbounds nuw i8, ptr %7, i64 80
  %9 = load ptr, ptr %8, align 8
  %.not = icmp eq ptr %9, null
  br i1 %.not, label %45, label %10

10:                                               ; preds = %2
  %11 = getelementptr inbounds nuw i8, ptr %7, i64 248
  %12 = getelementptr inbounds nuw i8, ptr %7, i64 256
  %.pn41 = load ptr, ptr %12, align 8
  %.not2543 = icmp eq ptr %.pn41, %11
  br i1 %.not2543, label %.loopexit, label %.lr.ph

.lr.ph:                                           ; preds = %10, %43
  %.pn44 = phi ptr [ %.pn, %43 ], [ %.pn41, %10 ]
  %.02145 = getelementptr inbounds i8, ptr %.pn44, i64 -40
  %13 = getelementptr inbounds nuw i8, ptr %.pn44, i64 280
  %14 = load ptr, ptr %13, align 8
  %.not26 = icmp eq ptr %14, null
  br i1 %.not26, label %15, label %.thread

15:                                               ; preds = %.lr.ph
  %16 = getelementptr inbounds nuw i8, ptr %.pn44, i64 48
  %17 = load ptr, ptr %16, align 8
  %.not27 = icmp eq ptr %17, null
  br i1 %.not27, label %43, label %.thread

.thread:                                          ; preds = %.lr.ph, %15
  %18 = phi ptr [ %17, %15 ], [ %14, %.lr.ph ]
  %19 = load ptr, ptr %18, align 8
  call void @llvm.lifetime.start.p0(i64 4, ptr nonnull %3) #6
  call void @llvm.lifetime.start.p0(i64 4, ptr nonnull %4) #6
  %20 = getelementptr inbounds nuw i8, ptr %19, i64 24
  %21 = load i32, ptr %20, align 8
  %22 = getelementptr inbounds nuw i8, ptr %19, i64 28
  %23 = load i32, ptr %22, align 4
  call void @SDL_RelativeToGlobalForWindow(ptr noundef %19, i32 noundef %21, i32 noundef %23, ptr noundef nonnull %3, ptr noundef nonnull %4) #6
  %24 = load i32, ptr %3, align 4
  %25 = sitofp i32 %24 to float
  %26 = load i32, ptr %4, align 4
  %27 = sitofp i32 %26 to float
  %28 = getelementptr inbounds nuw i8, ptr %19, i64 32
  %29 = load i32, ptr %28, align 8
  %30 = sitofp i32 %29 to float
  %31 = getelementptr inbounds nuw i8, ptr %19, i64 36
  %32 = load i32, ptr %31, align 4
  %33 = sitofp i32 %32 to float
  %34 = fcmp oge float %0, %25
  %35 = fadd float %25, %30
  %36 = fcmp ole float %0, %35
  %or.cond.not40 = select i1 %34, i1 %36, i1 false
  %37 = fcmp oge float %1, %27
  %or.cond33.not37 = select i1 %or.cond.not40, i1 %37, i1 false
  %38 = fadd float %27, %33
  %39 = fcmp ole float %1, %38
  %or.cond35 = select i1 %or.cond33.not37, i1 %39, i1 false
  br i1 %or.cond35, label %40, label %SDL_PointInRectFloat.exit.thread

40:                                               ; preds = %.thread
  %41 = fsub float %0, %25
  %42 = fsub float %1, %27
  call void @Wayland_SeatWarpMouse(ptr noundef nonnull %.02145, ptr noundef nonnull %18, float noundef %41, float noundef %42)
  br label %SDL_PointInRectFloat.exit.thread

SDL_PointInRectFloat.exit.thread:                 ; preds = %.thread, %40
  call void @llvm.lifetime.end.p0(i64 4, ptr nonnull %4) #6
  call void @llvm.lifetime.end.p0(i64 4, ptr nonnull %3) #6
  br label %43

43:                                               ; preds = %SDL_PointInRectFloat.exit.thread, %15
  %44 = getelementptr inbounds nuw i8, ptr %.pn44, i64 8
  %.pn = load ptr, ptr %44, align 8
  %.not25 = icmp eq ptr %.pn, %11
  br i1 %.not25, label %.loopexit, label %.lr.ph, !llvm.loop !12

45:                                               ; preds = %2
  %46 = tail call zeroext i1 (ptr, ...) @SDL_SetError_REAL(ptr noundef nonnull @.str) #6
  br label %.loopexit

.loopexit:                                        ; preds = %43, %10, %45
  %.0 = phi i1 [ %46, %45 ], [ true, %10 ], [ true, %43 ]
  ret i1 %.0
}